target datalayout = "e-m:e-p270:32:32-p271:32:32-p272:64:64-i64:64-i128:128-f80:128-n8:16:32:64-S128"
target triple = "x86_64-pc-linux-gnu"

%struct.ossl_param_st = type { ptr, i32, ptr, i64, i64 }
%struct.TEST_ENCAPDATA = type { ptr, ptr, i64, ptr, i64, ptr, i64, ptr, i64, ptr, i64, ptr, i64, ptr, i64 }

@libctx = internal global ptr null, align 8
@opparam = internal global [2 x %struct.ossl_param_st] zeroinitializer, align 16
@.str.3 = private unnamed_addr constant [38 x i8] c"../openssl/test/evp_pkey_dhkem_test.c\00", align 1
@.str.80 = private unnamed_addr constant [40 x i8] c"EVP_PKEY_encapsulate_init(ctx, opparam)\00", align 1
@.str.83 = private unnamed_addr constant [40 x i8] c"EVP_PKEY_decapsulate_init(ctx, opparam)\00", align 1
@.str.92 = private unnamed_addr constant [6 x i8] c"%s %s\00", align 1
@.str.93 = private unnamed_addr constant [6 x i8] c"Encap\00", align 1
@.str.94 = private unnamed_addr constant [6 x i8] c"Decap\00", align 1
@.str.95 = private unnamed_addr constant [69 x i8] c"priv = new_raw_private_key(t->curve, t->rpriv, t->rprivlen, NULL, 0)\00", align 1
@.str.96 = private unnamed_addr constant [53 x i8] c"ctx = EVP_PKEY_CTX_new_from_pkey(libctx, priv, NULL)\00", align 1
@.str.97 = private unnamed_addr constant [9 x i8] c"expected\00", align 1
@.str.98 = private unnamed_addr constant [32 x i8] c"ERR_GET_REASON(ERR_get_error())\00", align 1
@.str.99 = private unnamed_addr constant [24 x i8] c"PROV_R_NOT_A_PUBLIC_KEY\00", align 1

; Function Attrs: inlinehint nounwind uwtable
define internal i32 @ERR_GET_REASON(i64 noundef %0) #5 {
  %2 = alloca i32, align 4
  %3 = alloca i64, align 8
  store i64 %0, ptr %3, align 8, !tbaa !13
  %4 = load i64, ptr %3, align 8, !tbaa !13
  %5 = and i64 %4, 2147483648
  %6 = icmp ne i64 %5, 0
  br i1 %6, label %7, label %11

7:                                                ; preds = %1
  %8 = load i64, ptr %3, align 8, !tbaa !13
  %9 = and i64 %8, 2147483647
  %10 = trunc i64 %9 to i32
  store i32 %10, ptr %2, align 4
  br label %15

11:                                               ; preds = %1
  %12 = load i64, ptr %3, align 8, !tbaa !13
  %13 = and i64 %12, 8388607
  %14 = trunc i64 %13 to i32
  store i32 %14, ptr %2, align 4
  br label %15

15:                                               ; preds = %11, %7
  %16 = load i32, ptr %2, align 4
  ret i32 %16
}

; Function Attrs: nounwind uwtable
define internal i32 @test_nopublic(i32 noundef %0) #0 {
  %2 = alloca i32, align 4
  %3 = alloca i32, align 4
  %4 = alloca ptr, align 8
  %5 = alloca ptr, align 8
  %6 = alloca i32, align 4
  %7 = alloca i32, align 4
  %8 = alloca ptr, align 8
  %9 = alloca i32, align 4
  store i32 %0, ptr %2, align 4, !tbaa !10
  call void @llvm.lifetime.start.p0(i64 4, ptr %3) #6
  store i32 0, ptr %3, align 4, !tbaa !10
  call void @llvm.lifetime.start.p0(i64 8, ptr %4) #6
  store ptr null, ptr %4, align 8, !tbaa !19
  call void @llvm.lifetime.start.p0(i64 8, ptr %5) #6
  store ptr null, ptr %5, align 8, !tbaa !17
  call void @llvm.lifetime.start.p0(i64 4, ptr %6) #6
  %10 = load i32, ptr %2, align 4, !tbaa !10
  %11 = and i32 %10, 1
  %12 = icmp eq i32 %11, 0
  %13 = zext i1 %12 to i32
  store i32 %13, ptr %6, align 4, !tbaa !10
  call void @llvm.lifetime.start.p0(i64 4, ptr %7) #6
  %14 = load i32, ptr %2, align 4, !tbaa !10
  %15 = icmp sge i32 %14, 2
  %16 = zext i1 %15 to i32
  store i32 %16, ptr %7, align 4, !tbaa !10
  call void @llvm.lifetime.start.p0(i64 8, ptr %8) #6
  %17 = load i32, ptr %7, align 4, !tbaa !10
  %18 = sext i32 %17 to i64
  %19 = getelementptr inbounds [5 x %struct.TEST_ENCAPDATA], ptr @ec_encapdata, i64 0, i64 %18
  store ptr %19, ptr %8, align 8, !tbaa !12
  call void @llvm.lifetime.start.p0(i64 4, ptr %9) #6
  %20 = load i32, ptr %7, align 4, !tbaa !10
  %21 = icmp eq i32 %20, 1
  %22 = zext i1 %21 to i32
  store i32 %22, ptr %9, align 4, !tbaa !10
  %23 = load ptr, ptr %8, align 8, !tbaa !12
  %24 = getelementptr inbounds nuw %struct.TEST_ENCAPDATA, ptr %23, i32 0, i32 0
  %25 = load ptr, ptr %24, align 8, !tbaa !21
  %26 = load i32, ptr %6, align 4, !tbaa !10
  %27 = icmp ne i32 %26, 0
  %28 = select i1 %27, ptr @.str.93, ptr @.str.94
  call void (ptr, ...) @test_note(ptr noundef @.str.92, ptr noundef %25, ptr noundef %28)
  %29 = load ptr, ptr %8, align 8, !tbaa !12
  %30 = getelementptr inbounds nuw %struct.TEST_ENCAPDATA, ptr %29, i32 0, i32 0
  %31 = load ptr, ptr %30, align 8, !tbaa !21
  %32 = load ptr, ptr %8, align 8, !tbaa !12
  %33 = getelementptr inbounds nuw %struct.TEST_ENCAPDATA, ptr %32, i32 0, i32 5
  %34 = load ptr, ptr %33, align 8, !tbaa !29
  %35 = load ptr, ptr %8, align 8, !tbaa !12
  %36 = getelementptr inbounds nuw %struct.TEST_ENCAPDATA, ptr %35, i32 0, i32 6
  %37 = load i64, ptr %36, align 8, !tbaa !30
  %38 = call ptr @new_raw_private_key(ptr noundef %31, ptr noundef %34, i64 noundef %37, ptr noundef null, i64 noundef 0)
  store ptr %38, ptr %5, align 8, !tbaa !17
  %39 = call i32 @test_ptr(ptr noundef @.str.3, i32 noundef 405, ptr noundef @.str.95, ptr noundef %38)
  %40 = icmp ne i32 %39, 0
  br i1 %40, label %42, label %41

41:                                               ; preds = %1
  br label %78

42:                                               ; preds = %1
  %43 = load ptr, ptr @libctx, align 8, !tbaa !15
  %44 = load ptr, ptr %5, align 8, !tbaa !17
  %45 = call ptr @EVP_PKEY_CTX_new_from_pkey(ptr noundef %43, ptr noundef %44, ptr noundef null)
  store ptr %45, ptr %4, align 8, !tbaa !19
  %46 = call i32 @test_ptr(ptr noundef @.str.3, i32 noundef 407, ptr noundef @.str.96, ptr noundef %45)
  %47 = icmp ne i32 %46, 0
  br i1 %47, label %49, label %48

48:                                               ; preds = %42
  br label %78

49:                                               ; preds = %42
  %50 = load i32, ptr %6, align 4, !tbaa !10
  %51 = icmp ne i32 %50, 0
  br i1 %51, label %52, label %60

52:                                               ; preds = %49
  %53 = load ptr, ptr %4, align 8, !tbaa !19
  %54 = call i32 @EVP_PKEY_encapsulate_init(ptr noundef %53, ptr noundef @opparam)
  %55 = load i32, ptr %9, align 4, !tbaa !10
  %56 = call i32 @test_int_eq(ptr noundef @.str.3, i32 noundef 411, ptr noundef @.str.80, ptr noundef @.str.97, i32 noundef %54, i32 noundef %55)
  %57 = icmp ne i32 %56, 0
  br i1 %57, label %59, label %58

58:                                               ; preds = %52
  br label %78

59:                                               ; preds = %52
  br label %68

60:                                               ; preds = %49
  %61 = load ptr, ptr %4, align 8, !tbaa !19
  %62 = call i32 @EVP_PKEY_decapsulate_init(ptr noundef %61, ptr noundef @opparam)
  %63 = load i32, ptr %9, align 4, !tbaa !10
  %64 = call i32 @test_int_eq(ptr noundef @.str.3, i32 noundef 414, ptr noundef @.str.83, ptr noundef @.str.97, i32 noundef %62, i32 noundef %63)
  %65 = icmp ne i32 %64, 0
  br i1 %65, label %67, label %66

66:                                               ; preds = %60
  br label %78

67:                                               ; preds = %60
  br label %68

68:                                               ; preds = %67, %59
  %69 = load i32, ptr %9, align 4, !tbaa !10
  %70 = icmp eq i32 %69, 0
  br i1 %70, label %71, label %77

71:                                               ; preds = %68
  %72 = call i64 @ERR_get_error()
  %73 = call i32 @ERR_GET_REASON(i64 noundef %72)
  %74 = call i32 @test_int_eq(ptr noundef @.str.3, i32 noundef 418, ptr noundef @.str.98, ptr noundef @.str.99, i32 noundef %73, i32 noundef 220)
  %75 = icmp ne i32 %74, 0
  br i1 %75, label %77, label %76

76:                                               ; preds = %71
  br label %78

77:                                               ; preds = %71, %68
  store i32 1, ptr %3, align 4, !tbaa !10
  br label %78

78:                                               ; preds = %77, %76, %66, %58, %48, %41
  %79 = load ptr, ptr %5, align 8, !tbaa !17
  call void @EVP_PKEY_free(ptr noundef %79)
  %80 = load ptr, ptr %4, align 8, !tbaa !19
  call void @EVP_PKEY_CTX_free(ptr noundef %80)
  %81 = load i32, ptr %3, align 4, !tbaa !10
  call void @llvm.lifetime.end.p0(i64 4, ptr %9) #6
  call void @llvm.lifetime.end.p0(i64 8, ptr %8) #6
  call void @llvm.lifetime.end.p0(i64 4, ptr %7) #6
  call void @llvm.lifetime.end.p0(i64 4, ptr %6) #6
  call void @llvm.lifetime.end.p0(i64 8, ptr %5) #6
  call void @llvm.lifetime.end.p0(i64 8, ptr %4) #6
  call void @llvm.lifetime.end.p0(i64 4, ptr %3) #6
  ret i32 %81
}