; Function Attrs: nounwind uwtable
define internal range(i32 0, 2) i32 @test_nopublic(i32 noundef %0) #0 {
  %2 = and i32 %0, 1
  %3 = icmp eq i32 %2, 0
  %4 = icmp sgt i32 %0, 1
  %5 = zext i1 %4 to i32
  %6 = zext i1 %4 to i64
  %7 = getelementptr inbounds nuw [5 x %struct.TEST_ENCAPDATA], ptr @ec_encapdata, i64 0, i64 %6
  %8 = load ptr, ptr %7, align 8, !tbaa !21
  %9 = select i1 %3, ptr @.str.93, ptr @.str.94
  tail call void (ptr, ...) @test_note(ptr noundef nonnull @.str.92, ptr noundef %8, ptr noundef nonnull %9) #5
  %10 = getelementptr inbounds nuw i8, ptr %7, i64 40
  %11 = load ptr, ptr %10, align 8, !tbaa !35
  %12 = getelementptr inbounds nuw i8, ptr %7, i64 48
  %13 = load i64, ptr %12, align 8, !tbaa !36
  %14 = tail call fastcc ptr @new_raw_private_key(ptr noundef %8, ptr noundef %11, i64 noundef %13, ptr noundef null, i64 noundef 0)
  %15 = tail call i32 @test_ptr(ptr noundef nonnull @.str.3, i32 noundef 405, ptr noundef nonnull @.str.95, ptr noundef %14) #5
  %.not = icmp eq i32 %15, 0
  br i1 %.not, label %34, label %16

16:                                               ; preds = %1
  %17 = load ptr, ptr @libctx, align 8, !tbaa !15
  %18 = tail call ptr @EVP_PKEY_CTX_new_from_pkey(ptr noundef %17, ptr noundef %14, ptr noundef null) #5
  %19 = tail call i32 @test_ptr(ptr noundef nonnull @.str.3, i32 noundef 407, ptr noundef nonnull @.str.96, ptr noundef %18) #5
  %.not19 = icmp eq i32 %19, 0
  br i1 %.not19, label %34, label %20

20:                                               ; preds = %16
  br i1 %3, label %21, label %24

21:                                               ; preds = %20
  %22 = tail call i32 @EVP_PKEY_encapsulate_init(ptr noundef %18, ptr noundef nonnull @opparam) #5
  %23 = tail call i32 @test_int_eq(ptr noundef nonnull @.str.3, i32 noundef 411, ptr noundef nonnull @.str.80, ptr noundef nonnull @.str.97, i32 noundef %22, i32 noundef %5) #5
  %.not21 = icmp eq i32 %23, 0
  br i1 %.not21, label %34, label %27

24:                                               ; preds = %20
  %25 = tail call i32 @EVP_PKEY_decapsulate_init(ptr noundef %18, ptr noundef nonnull @opparam) #5
  %26 = tail call i32 @test_int_eq(ptr noundef nonnull @.str.3, i32 noundef 414, ptr noundef nonnull @.str.83, ptr noundef nonnull @.str.97, i32 noundef %25, i32 noundef %5) #5
  %.not20 = icmp eq i32 %26, 0
  br i1 %.not20, label %34, label %27

27:                                               ; preds = %24, %21
  br i1 %4, label %33, label %28

28:                                               ; preds = %27
  %29 = tail call i64 @ERR_get_error() #5
  %30 = and i64 %29, 2147483648
  %.not.i = icmp eq i64 %30, 0
  %31 = trunc i64 %29 to i32
  %.0.v.i = select i1 %.not.i, i32 8388607, i32 2147483647
  %.0.i = and i32 %.0.v.i, %31
  %32 = tail call i32 @test_int_eq(ptr noundef nonnull @.str.3, i32 noundef 418, ptr noundef nonnull @.str.98, ptr noundef nonnull @.str.99, i32 noundef %.0.i, i32 noundef 220) #5
  %.not22 = icmp eq i32 %32, 0
  br i1 %.not22, label %34, label %33

33:                                               ; preds = %28, %27
  br label %34

34:                                               ; preds = %28, %24, %21, %16, %1, %33
  %.018 = phi ptr [ %18, %33 ], [ %18, %28 ], [ %18, %21 ], [ %18, %24 ], [ %18, %16 ], [ null, %1 ]
  %.0 = phi i32 [ 1, %33 ], [ 0, %28 ], [ 0, %21 ], [ 0, %24 ], [ 0, %16 ], [ 0, %1 ]
  tail call void @EVP_PKEY_free(ptr noundef %14) #5
  tail call void @EVP_PKEY_CTX_free(ptr noundef %.018) #5
  ret i32 %.0
}